#include <math.h>
#include <stdio.h>
#include <stdlib.h>
#include <string.h>
#include <iostream>
using namespace std;

//**********************
//*?????***********
//*??????*********
//*???2013.12.5******
//**********************

int n, k, cnt = 0, i;
int apple(int m)
{
    if(cnt == n - 1)                       //???????n - 1???????m?????????
    {
        cout << m;
        return 1 ;                         //??m????1?????????
    }
    else
    {
       if(m % (n - 1) == 0)                //??m??n - 1????????????
       {
          cnt++;                           //?????1???????????????
          if(apple(m / (n - 1) * n + k) )
              return 1;                    //??????????1
          else
              return 0;                    //????????0
        }
        else
           return 0;                       //???n - 1?????0
     }
}
int main()
{
    cin >> n >> k;                   //???????????????
    for(i = 1; ;i++)
        if((i + k) % (n - 1) == 0)   //?????????i???
        {                            //??i + k ??n - 1???????????? ????
            cnt = 0;
            if(apple( n * i + k ))   //?????????????????????
                break;
        }
    return 0;
}
